target datalayout = "e-m:e-p270:32:32-p271:32:32-p272:64:64-i64:64-i128:128-f80:128-n8:16:32:64-S128"
target triple = "x86_64-pc-linux-gnu"

%class.VMRegImpl = type { i8 }

@all_VMRegs = external hidden global [610 x %class.VMRegImpl], align 16
@_ZN7OptoReg7opto2vmE = external constant [591 x ptr], align 16
@UseAVX = external global i32, align 4

; Function Attrs: mustprogress nounwind uwtable
define linkonce_odr hidden noundef ptr @_ZN9VMRegImpl7stack_0Ev() #1 comdat align 2 {
  %1 = call noundef ptr @_ZN9VMRegImpl5firstEv()
  %2 = getelementptr inbounds %class.VMRegImpl, ptr %1, i64 616
  ret ptr %2
}

; Function Attrs: mustprogress nounwind uwtable
define linkonce_odr hidden noundef i32 @_Z12checked_castIilET_T0_(i64 noundef %0) #1 comdat {
  %2 = alloca i64, align 8
  %3 = alloca i32, align 4
  store i64 %0, ptr %2, align 8
  %4 = load i64, ptr %2, align 8
  %5 = trunc i64 %4 to i32
  store i32 %5, ptr %3, align 4
  %6 = load i32, ptr %3, align 4
  ret i32 %6
}

; Function Attrs: mustprogress nounwind uwtable
define linkonce_odr hidden noundef ptr @_ZN9VMRegImpl5firstEv() #1 comdat align 2 {
  ret ptr getelementptr inbounds (%class.VMRegImpl, ptr @all_VMRegs, i64 1)
}

; Function Attrs: mustprogress nounwind uwtable
define linkonce_odr hidden noundef i32 @_ZN7OptoReg6stack0Ev() #1 comdat align 2 {
  %1 = call noundef ptr @_ZN9VMRegImpl7stack_0Ev()
  %2 = call noundef i32 @_ZNK9VMRegImpl5valueEv(ptr noundef nonnull align 1 dereferenceable(1) %1)
  ret i32 %2
}

; Function Attrs: mustprogress nounwind uwtable
define linkonce_odr hidden noundef i32 @_ZNK9VMRegImpl5valueEv(ptr noundef nonnull align 1 dereferenceable(1) %0) #1 comdat align 2 {
  %2 = alloca ptr, align 8
  store ptr %0, ptr %2, align 8
  %3 = load ptr, ptr %2, align 8
  %4 = call noundef ptr @_ZN9VMRegImpl5firstEv()
  %5 = ptrtoint ptr %3 to i64
  %6 = ptrtoint ptr %4 to i64
  %7 = sub i64 %5, %6
  %8 = call noundef i32 @_Z12checked_castIilET_T0_(i64 noundef %7)
  ret i32 %8
}

; Function Attrs: mustprogress nounwind uwtable
define linkonce_odr hidden noundef i32 @_ZN11XMMRegister23available_xmm_registersEv() #1 comdat align 2 {
  %1 = alloca i32, align 4
  %2 = load i32, ptr @UseAVX, align 4
  %3 = icmp slt i32 %2, 3
  br i1 %3, label %4, label %5

4:                                                ; preds = %0
  store i32 16, ptr %1, align 4
  br label %6

5:                                                ; preds = %0
  store i32 32, ptr %1, align 4
  br label %6

6:                                                ; preds = %5, %4
  %7 = load i32, ptr %1, align 4
  ret i32 %7
}

; Function Attrs: mustprogress nounwind uwtable
define linkonce_odr hidden noundef ptr @_ZN9VMRegImpl3BadEv() #1 comdat align 2 {
  %1 = call noundef ptr @_ZN9VMRegImpl5firstEv()
  %2 = getelementptr inbounds %class.VMRegImpl, ptr %1, i64 -1
  ret ptr %2
}

; Function Attrs: mustprogress nounwind uwtable
define linkonce_odr hidden noundef zeroext i1 @_ZN7OptoReg8is_stackEi(i32 noundef %0) #1 comdat align 2 {
  %2 = alloca i32, align 4
  store i32 %0, ptr %2, align 4
  %3 = load i32, ptr %2, align 4
  %4 = call noundef i32 @_ZN7OptoReg6stack0Ev()
  %5 = icmp sge i32 %3, %4
  ret i1 %5
}

; Function Attrs: mustprogress nounwind uwtable
define linkonce_odr hidden noundef zeroext i1 @_ZN7OptoReg8is_validEi(i32 noundef %0) #1 comdat align 2 {
  %2 = alloca i32, align 4
  store i32 %0, ptr %2, align 4
  %3 = load i32, ptr %2, align 4
  %4 = icmp ne i32 %3, -1
  ret i1 %4
}

; Function Attrs: mustprogress nounwind uwtable
define linkonce_odr hidden noundef zeroext i1 @_ZN9VMRegImpl14is_XMMRegisterEv(ptr noundef nonnull align 1 dereferenceable(1) %0) #1 comdat align 2 {
  %2 = alloca ptr, align 8
  %3 = alloca i32, align 4
  store ptr %0, ptr %2, align 8
  %4 = load ptr, ptr %2, align 8
  %5 = call noundef i32 @_ZN11XMMRegister23available_xmm_registersEv()
  %6 = mul nsw i32 16, %5
  %7 = add nsw i32 80, %6
  store i32 %7, ptr %3, align 4
  %8 = call noundef i32 @_ZNK9VMRegImpl5valueEv(ptr noundef nonnull align 1 dereferenceable(1) %4)
  %9 = icmp sge i32 %8, 80
  br i1 %9, label %10, label %14

10:                                               ; preds = %1
  %11 = call noundef i32 @_ZNK9VMRegImpl5valueEv(ptr noundef nonnull align 1 dereferenceable(1) %4)
  %12 = load i32, ptr %3, align 4
  %13 = icmp slt i32 %11, %12
  br label %14

14:                                               ; preds = %10, %1
  %15 = phi i1 [ false, %1 ], [ %13, %10 ]
  ret i1 %15
}

; Function Attrs: mustprogress nounwind uwtable
define linkonce_odr hidden noundef ptr @_ZN7OptoReg8as_VMRegEi(i32 noundef %0) #1 comdat align 2 {
  %2 = alloca ptr, align 8
  %3 = alloca i32, align 4
  store i32 %0, ptr %3, align 4
  %4 = load i32, ptr %3, align 4
  %5 = call noundef zeroext i1 @_ZN7OptoReg6is_regEi(i32 noundef %4)
  br i1 %5, label %6, label %11

6:                                                ; preds = %1
  %7 = load i32, ptr %3, align 4
  %8 = sext i32 %7 to i64
  %9 = getelementptr inbounds [591 x ptr], ptr @_ZN7OptoReg7opto2vmE, i64 0, i64 %8
  %10 = load ptr, ptr %9, align 8
  store ptr %10, ptr %2, align 8
  br label %13

11:                                               ; preds = %1
  %12 = call noundef ptr @_ZN9VMRegImpl3BadEv()
  store ptr %12, ptr %2, align 8
  br label %13

13:                                               ; preds = %11, %6
  %14 = load ptr, ptr %2, align 8
  ret ptr %14
}

; Function Attrs: mustprogress nounwind uwtable
define linkonce_odr hidden noundef zeroext i1 @_ZN7OptoReg6is_regEi(i32 noundef %0) #1 comdat align 2 {
  %2 = alloca i32, align 4
  store i32 %0, ptr %2, align 4
  %3 = load i32, ptr %2, align 4
  %4 = call noundef zeroext i1 @_ZN7OptoReg8is_validEi(i32 noundef %3)
  br i1 %4, label %5, label %9

5:                                                ; preds = %1
  %6 = load i32, ptr %2, align 4
  %7 = call noundef zeroext i1 @_ZN7OptoReg8is_stackEi(i32 noundef %6)
  %8 = xor i1 %7, true
  br label %9

9:                                                ; preds = %5, %1
  %10 = phi i1 [ false, %1 ], [ %8, %5 ]
  ret i1 %10
}

; Function Attrs: mustprogress nounwind uwtable
define hidden noundef i32 @_ZN19BarrierSetAssembler15refine_registerEPK4Nodei(ptr noundef nonnull align 8 dereferenceable(8) %0, ptr noundef %1, i32 noundef %2) #1 align 2 {
  %4 = alloca i32, align 4
  %5 = alloca ptr, align 8
  %6 = alloca ptr, align 8
  %7 = alloca i32, align 4
  %8 = alloca ptr, align 8
  store ptr %0, ptr %5, align 8
  store ptr %1, ptr %6, align 8
  store i32 %2, ptr %7, align 4
  %9 = load i32, ptr %7, align 4
  %10 = call noundef zeroext i1 @_ZN7OptoReg6is_regEi(i32 noundef %9)
  br i1 %10, label %12, label %11

11:                                               ; preds = %3
  store i32 -1, ptr %4, align 4
  br label %40

12:                                               ; preds = %3
  %13 = load i32, ptr %7, align 4
  %14 = call noundef ptr @_ZN7OptoReg8as_VMRegEi(i32 noundef %13)
  store ptr %14, ptr %8, align 8
  %15 = load ptr, ptr %8, align 8
  %16 = call noundef zeroext i1 @_ZN9VMRegImpl14is_XMMRegisterEv(ptr noundef nonnull align 1 dereferenceable(1) %15)
  br i1 %16, label %17, label %38

17:                                               ; preds = %12
  %18 = load i32, ptr %7, align 4
  %19 = and i32 %18, -16
  store i32 %19, ptr %7, align 4
  %20 = load ptr, ptr %6, align 8
  %21 = load ptr, ptr %20, align 8
  %22 = getelementptr inbounds ptr, ptr %21, i64 14
  %23 = load ptr, ptr %22, align 8
  %24 = call noundef i32 %23(ptr noundef nonnull align 8 dereferenceable(52) %20)
  switch i32 %24, label %34 [
    i32 11, label %25
    i32 12, label %28
    i32 13, label %31
  ]

25:                                               ; preds = %17
  %26 = load i32, ptr %7, align 4
  %27 = or i32 %26, 2
  store i32 %27, ptr %7, align 4
  br label %37

28:                                               ; preds = %17
  %29 = load i32, ptr %7, align 4
  %30 = or i32 %29, 4
  store i32 %30, ptr %7, align 4
  br label %37

31:                                               ; preds = %17
  %32 = load i32, ptr %7, align 4
  %33 = or i32 %32, 8
  store i32 %33, ptr %7, align 4
  br label %37

34:                                               ; preds = %17
  %35 = load i32, ptr %7, align 4
  %36 = or i32 %35, 1
  store i32 %36, ptr %7, align 4
  br label %37

37:                                               ; preds = %34, %31, %28, %25
  br label %38

38:                                               ; preds = %37, %12
  %39 = load i32, ptr %7, align 4
  store i32 %39, ptr %4, align 4
  br label %40

40:                                               ; preds = %38, %11
  %41 = load i32, ptr %4, align 4
  ret i32 %41
}