; Function Attrs: mustprogress nounwind uwtable
define hidden noundef i32 @_ZN19BarrierSetAssembler15refine_registerEPK4Nodei(ptr nocapture noundef nonnull readnone align 8 dereferenceable(8) %0, ptr noundef %1, i32 noundef %2) local_unnamed_addr #0 align 2 {
  %4 = icmp ne i32 %2, -1
  %5 = icmp slt i32 %2, 616
  %6 = and i1 %4, %5
  br i1 %6, label %_ZN7OptoReg8as_VMRegEi.exit, label %33

_ZN7OptoReg8as_VMRegEi.exit:                      ; preds = %3
  %7 = sext i32 %2 to i64
  %8 = getelementptr inbounds [591 x ptr], ptr @_ZN7OptoReg7opto2vmE, i64 0, i64 %7
  %9 = load ptr, ptr %8, align 8
  %10 = load i32, ptr @UseAVX, align 4
  %11 = icmp slt i32 %10, 3
  %12 = ptrtoint ptr %9 to i64
  %13 = trunc i64 %12 to i32
  %14 = sub i32 %13, ptrtoint (ptr getelementptr inbounds (i8, ptr @all_VMRegs, i64 1) to i32)
  %15 = icmp sgt i32 %14, 79
  %16 = select i1 %11, i32 336, i32 592
  %17 = icmp ult i32 %14, %16
  %18 = select i1 %15, i1 %17, i1 false
  br i1 %18, label %19, label %33

19:                                               ; preds = %_ZN7OptoReg8as_VMRegEi.exit
  %20 = and i32 %2, -16
  %21 = load ptr, ptr %1, align 8
  %22 = getelementptr inbounds i8, ptr %21, i64 112
  %23 = load ptr, ptr %22, align 8
  %24 = tail call noundef i32 %23(ptr noundef nonnull align 8 dereferenceable(52) %1) #12
  switch i32 %24, label %31 [
    i32 11, label %25
    i32 12, label %27
    i32 13, label %29
  ]

25:                                               ; preds = %19
  %26 = or disjoint i32 %20, 2
  br label %33

27:                                               ; preds = %19
  %28 = or disjoint i32 %20, 4
  br label %33

29:                                               ; preds = %19
  %30 = or disjoint i32 %20, 8
  br label %33

31:                                               ; preds = %19
  %32 = or disjoint i32 %20, 1
  br label %33

33:                                               ; preds = %_ZN7OptoReg8as_VMRegEi.exit, %31, %29, %27, %25, %3
  %.0 = phi i32 [ -1, %3 ], [ %32, %31 ], [ %30, %29 ], [ %28, %27 ], [ %26, %25 ], [ %2, %_ZN7OptoReg8as_VMRegEi.exit ]
  ret i32 %.0
}